target datalayout = "e-m:e-p270:32:32-p271:32:32-p272:64:64-i64:64-i128:128-f80:128-n8:16:32:64-S128"
target triple = "x86_64-pc-linux-gnu"

%struct.V360Context = type { ptr, i32, i32, i32, i32, i32, i32, i32, ptr, ptr, ptr, ptr, ptr, [6 x i32], [6 x i32], [6 x i32], [6 x i32], [3 x i32], i32, i32, float, float, i32, i32, float, float, float, float, float, i32, i32, i32, i32, i32, i32, i32, float, float, float, float, float, float, [2 x float], [2 x float], [2 x [4 x float]], [3 x float], i32, i32, i32, i32, [4 x i32], [4 x i32], [4 x i32], [4 x i32], [4 x i32], [4 x i32], [4 x i32], [4 x i32], [4 x i32], [4 x i32], [4 x i32], i32, i32, i32, i32, i32, i32, ptr, [4 x i32], ptr, ptr, ptr, ptr, ptr }
%struct.AVFilterContext = type { ptr, ptr, ptr, ptr, ptr, i32, ptr, ptr, i32, ptr, ptr, i32, i32, ptr, ptr, ptr, ptr, i32, ptr, i32, i32 }

; Function Attrs: nounwind uwtable
define internal i32 @prepare_flat_out(ptr noundef %0) #0 {
  %2 = alloca ptr, align 8
  %3 = alloca ptr, align 8
  store ptr %0, ptr %2, align 8, !tbaa !47
  call void @llvm.lifetime.start.p0(i64 8, ptr %3) #13
  %4 = load ptr, ptr %2, align 8, !tbaa !47
  %5 = getelementptr inbounds nuw %struct.AVFilterContext, ptr %4, i32 0, i32 9
  %6 = load ptr, ptr %5, align 8, !tbaa !49
  store ptr %6, ptr %3, align 8, !tbaa !4
  %7 = load ptr, ptr %3, align 8, !tbaa !4
  %8 = getelementptr inbounds nuw %struct.V360Context, ptr %7, i32 0, i32 36
  %9 = load float, ptr %8, align 4, !tbaa !119
  %10 = fmul nsz float 5.000000e-01, %9
  %11 = fpext nsz float %10 to double
  %12 = fmul nsz double %11, 0x400921FB54442D18
  %13 = fdiv nsz double %12, 1.800000e+02
  %14 = fptrunc nsz double %13 to float
  %15 = call nsz float @llvm.tan.f32(float %14)
  %16 = load ptr, ptr %3, align 8, !tbaa !4
  %17 = getelementptr inbounds nuw %struct.V360Context, ptr %16, i32 0, i32 42
  %18 = getelementptr inbounds [2 x float], ptr %17, i64 0, i64 0
  store float %15, ptr %18, align 4, !tbaa !99
  %19 = load ptr, ptr %3, align 8, !tbaa !4
  %20 = getelementptr inbounds nuw %struct.V360Context, ptr %19, i32 0, i32 37
  %21 = load float, ptr %20, align 8, !tbaa !120
  %22 = fmul nsz float 5.000000e-01, %21
  %23 = fpext nsz float %22 to double
  %24 = fmul nsz double %23, 0x400921FB54442D18
  %25 = fdiv nsz double %24, 1.800000e+02
  %26 = fptrunc nsz double %25 to float
  %27 = call nsz float @llvm.tan.f32(float %26)
  %28 = load ptr, ptr %3, align 8, !tbaa !4
  %29 = getelementptr inbounds nuw %struct.V360Context, ptr %28, i32 0, i32 42
  %30 = getelementptr inbounds [2 x float], ptr %29, i64 0, i64 1
  store float %27, ptr %30, align 4, !tbaa !99
  call void @llvm.lifetime.end.p0(i64 8, ptr %3) #13
  ret i32 0
}