; Function Attrs: mustprogress nofree norecurse nosync nounwind willreturn memory(readwrite, inaccessiblemem: none) uwtable
define internal noundef i32 @prepare_flat_out(ptr noundef readonly captures(none) %0) unnamed_addr #8 {
  %2 = getelementptr inbounds nuw i8, ptr %0, i64 72
  %3 = load ptr, ptr %2, align 8, !tbaa !39
  %4 = getelementptr inbounds nuw i8, ptr %3, i64 260
  %5 = load float, ptr %4, align 4, !tbaa !109
  %6 = fmul nsz float %5, 5.000000e-01
  %7 = fpext nsz float %6 to double
  %8 = fmul nsz double %7, 0x400921FB54442D18
  %9 = fdiv nsz double %8, 1.800000e+02
  %10 = fptrunc nsz double %9 to float
  %11 = tail call nsz float @llvm.tan.f32(float %10)
  %12 = getelementptr inbounds nuw i8, ptr %3, i64 284
  store float %11, ptr %12, align 4, !tbaa !49
  %13 = getelementptr inbounds nuw i8, ptr %3, i64 264
  %14 = load float, ptr %13, align 8, !tbaa !110
  %15 = fmul nsz float %14, 5.000000e-01
  %16 = fpext nsz float %15 to double
  %17 = fmul nsz double %16, 0x400921FB54442D18
  %18 = fdiv nsz double %17, 1.800000e+02
  %19 = fptrunc nsz double %18 to float
  %20 = tail call nsz float @llvm.tan.f32(float %19)
  %21 = getelementptr inbounds nuw i8, ptr %3, i64 288
  store float %20, ptr %21, align 4, !tbaa !49
  ret i32 0
}